******************************************************************************
            TI ARM Clang Linker PC v4.0.1                      
******************************************************************************
>> Linked Wed Apr  9 15:45:24 2025

OUTPUT FILE NAME:   <TheM0+rix_Segfaulted.out>
ENTRY POINT SYMBOL: "_c_int00_noargs"  address: 0001c415


MEMORY CONFIGURATION

         name            origin    length      used     unused   attr    fill
----------------------  --------  ---------  --------  --------  ----  --------
  FLASH                 00000000   00020000  0001ca00  00003600  R  X
  SRAM                  20200000   00008000  0000683f  000017c1  RW X
  BCR_CONFIG            41c00000   00000080  00000000  00000080  R   
  BSL_CONFIG            41c00100   00000080  00000000  00000080  R   


SEGMENT ALLOCATION MAP

run origin  load origin   length   init length attrs members
----------  ----------- ---------- ----------- ----- -------
00000000    00000000    0001ca00   0001ca00    r-x
  00000000    00000000    000000c0   000000c0    r-- .intvecs
  000000c0    000000c0    00015a70   00015a70    r-- .rodata
  00015b30    00015b30    00006d00   00006d00    r-x .text
  0001c830    0001c830    000001d0   000001d0    r-- .cinit
20200000    20200000    00006648   00000000    rw-
  20200000    20200000    00005e7a   00000000    rw- .bss
  20205e80    20205e80    000005c5   00000000    rw- .data
  20206448    20206448    00000200   00000000    rw- .sysmem
20207e00    20207e00    00000200   00000000    rw-
  20207e00    20207e00    00000200   00000000    rw- .stack


SECTION ALLOCATION MAP

 output                                  attributes/
section   page    origin      length       input sections
--------  ----  ----------  ----------   ----------------
.intvecs   0    00000000    000000c0     
                  00000000    000000c0     startup_mspm0g3507_ticlang.o (.intvecs)

.text      0    00015b30    00006d00     
                  00015b30    00000a48     libc.a : e_pow.c.obj (.text.pow)
                  00016578    00000698     Input.o (.text.MovePlayer)
                  00016c10    0000058c     sprites.o (.text.RenderSprite)
                  0001719c    00000524     Graphics.o (.text.CastRays)
                  000176c0    00000284     libc.a : _printfi.c.obj (.text:__TI_printfi_minimal)
                  00017944    00000238     Graphics.o (.text.DrawCrosshair)
                  00017b7c    00000218     Buffer.o (.text.drawForegroundSpriteToBuffer)
                  00017d94    00000210     ST7735.o (.text.ST7735_DrawBitmap)
                  00017fa4    000001f4     Graphics.o (.text.DrawHealthBar)
                  00018198    000001b4     Clock.o (.text.Clock_Init80MHz)
                  0001834c    000001a8     ST7735.o (.text.ST7735_DrawChar)
                  000184f4    00000192     libclang_rt.builtins.a : adddf3.S.obj (.text.adddf3_subdf3)
                  00018686    00000002                            : aeabi_div0.c.obj (.text.__aeabi_idiv0)
                  00018688    0000018c     sprites.o (.text.RenderSprites)
                  00018814    00000170     libc.a : e_sqrt.c.obj (.text.sqrt)
                  00018984    00000154            : fopen.c.obj (.text._openfile)
                  00018ad8    00000144            : s_floor.c.obj (.text.floor)
                  00018c1c    00000134            : qsort.c.obj (.text.qsort)
                  00018d50    00000124     ADC.o (.text.ADC_InitDual)
                  00018e74    00000118     ST7735.o (.text.ST7735_FillRect)
                  00018f8c    00000114     libc.a : memory.c.obj (.text.aligned_alloc)
                  000190a0    0000010c     libclang_rt.builtins.a : divdf3.S.obj (.text.__divdf3)
                  000191ac    00000100     Buffer.o (.text.drawCharToBuffer)
                  000192ac    00000100     Sync.o (.text.getInfoPacket)
                  000193ac    000000f8     SPI.o (.text.SPI_Init)
                  000194a4    000000f8     libc.a : fputs.c.obj (.text.fputs)
                  0001959c    000000f4     sprites.o (.text.RenderForegroundSprites)
                  00019690    000000f4     Graphics.o (.text.RenderSky)
                  00019784    000000f4     ST7735.o (.text.ST7735_SetRotation)
                  00019878    000000ec     libsysbm.a : add_device.c.obj (.text.add_device)
                  00019964    000000e8     libc.a : memory.c.obj (.text.free)
                  00019a4c    000000e4     libclang_rt.builtins.a : muldf3.S.obj (.text.__muldf3)
                  00019b30    000000e0     libc.a : setvbuf.c.obj (.text.setvbuf)
                  00019c10    000000d8            : s_scalbn.c.obj (.text.scalbn)
                  00019ce8    000000d0     Inventory.o (.text.Inventory_add)
                  00019db8    000000d0     ST7735.o (.text.ST7735_OutChar)
                  00019e88    000000d0     UART2.o (.text.UART2_Init)
                  00019f58    000000cc     Input.o (.text.TIMG12_IRQHandler)
                  0001a024    000000c0     main.o (.text.main)
                  0001a0e4    000000b4     Buffer.o (.text.printToBuffer)
                  0001a198    000000a8     DAC.o (.text.DAC_Init)
                  0001a240    000000a8     sprites.o (.text.RenderInventory)
                  0001a2e8    000000a8     Timer.o (.text.TimerG7_IntArm)
                  0001a390    000000a8     Timer.o (.text.TimerG8_IntArm)
                  0001a438    000000a4     Timer.o (.text.TimerG0_IntArm)
                  0001a4dc    000000a2     ST7735.o (.text.commandList)
                  0001a57e    00000002     libc.a : _lock.c.obj (.text._nop)
                  0001a580    000000a0     Buffer.o (.text.blitBufferToRenderBuffer)
                  0001a620    000000a0     libsysbm.a : open.c.obj (.text.open)
                  0001a6c0    0000009c     ST7735.o (.text.ST7735_InitPrintf)
                  0001a75c    0000009c     libc.a : fputc.c.obj (.text.fputc)
                  0001a7f8    0000009c     Sync.o (.text.getPositionPacket)
                  0001a894    00000098     ST7735.o (.text.ST7735_InitR)
                  0001a92c    00000094     Timer.o (.text.TimerG12_IntArm)
                  0001a9c0    00000090     Graphics.o (.text.FillMap)
                  0001aa50    0000008c     Buffer.o (.text.clearRenderBuffer)
                  0001aadc    00000088     ST7735.o (.text.setAddrWindow)
                  0001ab64    0000000c     Clock.o (.text.Clock_Freq)
                  0001ab70    00000088     libc.a : strcmp-armv6m.S.obj (.text:strcmp)
                  0001abf8    00000084     Buffer.o (.text.PrecalculateFloorGradient)
                  0001ac7c    00000084     ST7735.o (.text.ST7735_DrawString)
                  0001ad00    00000080     Sync.o (.text.sendPositionPacket)
                  0001ad80    0000007c     LaunchPad.o (.text.LaunchPad_Init)
                  0001adfc    0000007c     UART1.o (.text.UART1_Init)
                  0001ae78    0000007c     libc.a : fclose.c.obj (.text.__TI_closefile)
                  0001aef4    0000007c            : copy_decompress_lzss.c.obj (.text:decompress:lzss)
                  0001af70    00000078     Graphics.o (.text.DrawMinimap)
                  0001afe8    00000074     Inventory.o (.text.Inventory_removeCurrent)
                  0001b05c    00000074     libclang_rt.builtins.a : comparedf2.c.obj (.text.__gedf2)
                  0001b0d0    00000070     Graphics.o (.text.RenderHUD)
                  0001b140    0000006c     libsysbm.a : hostlseek.c.obj (.text.HOSTlseek)
                  0001b1ac    0000006c                : hostrename.c.obj (.text.HOSTrename)
                  0001b218    0000006c     UART2.o (.text.UART2_IRQHandler)
                  0001b284    0000006c     libc.a : fseek.c.obj (.text.fseeko)
                  0001b2f0    0000006c            : getdevice.c.obj (.text.getdevice)
                  0001b35c    00000068     libclang_rt.builtins.a : comparedf2.c.obj (.text.__ledf2)
                  0001b3c4    00000064     ADC.o (.text.ADC_InDual)
                  0001b428    00000064     libc.a : _io_perm.c.obj (.text.__TI_wrt_ok)
                  0001b48c    00000064            : memory.c.obj (.text.split)
                  0001b4f0    00000062     libclang_rt.builtins.a : aeabi_dcmp.S.obj (.text.__aeabi_dcmp)
                  0001b552    00000002     --HOLE-- [fill = 0]
                  0001b554    00000060     libsysbm.a : hostopen.c.obj (.text.HOSTopen)
                  0001b5b4    0000005c     libc.a : printf.c.obj (.text.printf)
                  0001b610    0000005c     Buffer.o (.text.setPixelBuffer)
                  0001b66c    00000058     libsysbm.a : hostread.c.obj (.text.HOSTread)
                  0001b6c4    00000058                : hostwrite.c.obj (.text.HOSTwrite)
                  0001b71c    00000058     Sync.o (.text.TIMG7_IRQHandler)
                  0001b774    00000056     libclang_rt.builtins.a : aeabi_idivmod.S.obj (.text.__aeabi_idivmod)
                  0001b7ca    00000056     sprites.o (.text.compareSprites)
                  0001b820    00000052     libc.a : fflush.c.obj (.text.__TI_doflush)
                  0001b872    00000002     --HOLE-- [fill = 0]
                  0001b874    00000050     libsysbm.a : close.c.obj (.text.close)
                  0001b8c4    0000004c     FIFO.o (.text.RxFifo_Get)
                  0001b910    0000004c     FIFO.o (.text.RxFifo_Put)
                  0001b95c    0000004c     Sync.o (.text.TIMG8_IRQHandler)
                  0001b9a8    0000004c     Inventory.o (.text.inInventory)
                  0001b9f4    0000004c     Graphics.o (.text.printAmmo)
                  0001ba40    0000004a     libclang_rt.builtins.a : fixdfsi.S.obj (.text.__fixdfsi)
                  0001ba8a    00000002     --HOLE-- [fill = 0]
                  0001ba8c    00000048     libsysbm.a : hostclose.c.obj (.text.HOSTclose)
                  0001bad4    00000048                : hostunlink.c.obj (.text.HOSTunlink)
                  0001bb1c    00000048     SPI.o (.text.SPI_OutCommand)
                  0001bb64    00000048     Sounds.o (.text.Sound_Init)
                  0001bbac    00000048     Async_Delay.o (.text.TIMG0_IRQHandler)
                  0001bbf4    00000044     Input.o (.text.Input_Init)
                  0001bc38    00000044     Sounds.o (.text.SysTick_Handler)
                  0001bc7c    00000040     Graphics.o (.text.RenderScene)
                  0001bcbc    00000040     SPI.o (.text.SPI_Reset)
                  0001bcfc    00000040     libclang_rt.builtins.a : aeabi_uidivmod.S.obj (.text.__aeabi_uidivmod)
                  0001bd3c    00000040     libc.a : fopen.c.obj (.text._search_fp)
                  0001bd7c    0000003c     Input.o (.text.fastSin)
                  0001bdb8    0000003c     Sync.o (.text.sendInfoPacket)
                  0001bdf4    0000003c     libc.a : autoinit.c.obj (.text:__TI_auto_init_nobinit_nopinit)
                  0001be30    0000003a     libclang_rt.builtins.a : muldsi3.S.obj (.text.__muldsi3)
                  0001be6a    00000002     --HOLE-- [fill = 0]
                  0001be6c    00000038     LaunchPad.o (.text.ActivatePortA_B)
                  0001bea4    00000038     Buffer.o (.text.RenderBuffer)
                  0001bedc    00000038     SPI.o (.text.SPI_OutData)
                  0001bf14    00000038     Sounds.o (.text.Sound_Start)
                  0001bf4c    00000038     libc.a : rand.c.obj (.text.rand)
                  0001bf84    00000038            : sprintf.c.obj (.text.sprintf)
                  0001bfbc    00000038     Async_Delay.o (.text.start_delay)
                  0001bff4    00000034     Clock.o (.text.Clock_Delay1ms)
                  0001c028    00000034     ST7735.o (.text.ST7735_SetCursor)
                  0001c05c    00000034     ST7735.o (.text.ST7735_write)
                  0001c090    00000034     libc.a : fopen.c.obj (.text.__TI_cleanup)
                  0001c0c4    00000034     libsysbm.a : trgmsg.c.obj (.text.__TI_readmsg)
                  0001c0f8    00000034                : trgmsg.c.obj (.text.__TI_writemsg)
                  0001c12c    00000034     libc.a : exit.c.obj (.text.exit)
                  0001c160    00000034            : getdevice.c.obj (.text.finddevice)
                  0001c194    00000034            : fopen.c.obj (.text.freopen)
                  0001c1c8    00000034     Graphics.o (.text.printItem)
                  0001c1fc    00000030     Sync.o (.text.Sync_Init)
                  0001c22c    00000030     main.o (.text.SystemInit)
                  0001c25c    00000030     ST7735.o (.text.commonInit)
                  0001c28c    00000030     Input.o (.text.fastCos)
                  0001c2bc    00000030     libc.a : fopen.c.obj (.text.fopen)
                  0001c2ec    0000002c     ST7735.o (.text.ST7735_FillScreen)
                  0001c318    0000002c     libclang_rt.builtins.a : floatsidf.S.obj (.text.__floatsidf)
                  0001c344    0000002c     libsysbm.a : unlink.c.obj (.text.unlink)
                  0001c370    0000002a     UART2.o (.text.UART2_InChar)
                  0001c39a    00000002     --HOLE-- [fill = 0]
                  0001c39c    00000028     libc.a : memory.c.obj (.text.free_list_insert)
                  0001c3c4    00000028     libsysbm.a : lseek.c.obj (.text.lseek)
                  0001c3ec    00000028                : write.c.obj (.text.write)
                  0001c414    00000028     libc.a : boot_cortex_m.c.obj (.text:_c_int00_noargs)
                  0001c43c    00000024     Inventory.o (.text.Inventory_next)
                  0001c460    00000024     Joy.o (.text.Joy_Init)
                  0001c484    00000024     libclang_rt.builtins.a : floatunsidf.S.obj (.text.__floatunsidf)
                  0001c4a8    00000022     libc.a : memccpy.c.obj (.text.memccpy)
                  0001c4ca    00000002     --HOLE-- [fill = 0]
                  0001c4cc    00000020     Graphics.o (.text.Graphics_Init)
                  0001c4ec    00000020     Inventory.o (.text.Item_isWeapon)
                  0001c50c    0000001e     ST7735.o (.text.pushColor)
                  0001c52a    00000002     --HOLE-- [fill = 0]
                  0001c52c    0000001c     startup_mspm0g3507_ticlang.o (.text.Default_Handler)
                  0001c548    0000001c     startup_mspm0g3507_ticlang.o (.text.HardFault_Handler)
                  0001c564    0000001c     Joy.o (.text.Joy_In)
                  0001c580    0000001c     libc.a : memory.c.obj (.text.free_list_remove)
                  0001c59c    00000018     FIFO.o (.text.RxFifo_Size)
                  0001c5b4    00000018     UART1.o (.text.UART1_OutChar)
                  0001c5cc    00000018     libc.a : sprintf.c.obj (.text._outs)
                  0001c5e4    00000016     ST7735.o (.text.ST7735_open)
                  0001c5fa    00000016     ST7735.o (.text.ST7735_read)
                  0001c610    00000014     DAC.o (.text.DAC_Out)
                  0001c624    00000014     FIFO.o (.text.RxFifo_Init)
                  0001c638    00000012     Inventory.o (.text.Inventory_currentItem)
                  0001c64a    00000012     Inventory.o (.text.Item_isSpent)
                  0001c65c    00000012     libc.a : memcpy16.S.obj (.text:TI_memcpy_small)
                  0001c66e    00000012            : copy_decompress_none.c.obj (.text:decompress:none)
                  0001c680    00000010     Clock.o (.text.Clock_Delay)
                  0001c690    00000010     LaunchPad.o (.text.Delay)
                  0001c6a0    00000010     Joy.o (.text.Joy_InButton)
                  0001c6b0    00000010     Input.o (.text.ReadKeys)
                  0001c6c0    00000010     libc.a : copy_zero_init.c.obj (.text:decompress:ZI)
                  0001c6d0    0000000e            : memory.c.obj (.text.OUTLINED_FUNCTION_0)
                  0001c6de    0000000e     ST7735.o (.text.ST7735_lseek)
                  0001c6ec    0000000e     libclang_rt.builtins.a : aeabi_memset.S.obj (.text.__aeabi_memset)
                  0001c6fa    0000000e     libsysbm.a : hostrename.c.obj (.text.strcpy)
                  0001c708    0000000e     libc.a : _printfi.c.obj (.text.strlen)
                  0001c716    0000000e     libsysbm.a : hostrename.c.obj (.text.strlen)
                  0001c724    0000000e     libc.a : memset16.S.obj (.text:TI_memset_small)
                  0001c732    0000000c     ST7735.o (.text.ST7735_rename)
                  0001c73e    00000002     --HOLE-- [fill = 0]
                  0001c740    0000000c     libclang_rt.builtins.a : aeabi_memset.S.obj (.text.__aeabi_memclr)
                  0001c74c    0000000c     libc.a : memory.c.obj (.text.malloc)
                  0001c758    0000000a            : e_pow.c.obj (.text.OUTLINED_FUNCTION_0)
                  0001c762    00000002     --HOLE-- [fill = 0]
                  0001c764    00000010     libclang_rt.builtins.a : muldf3.S.obj (.tramp.__aeabi_dmul.1)
                  0001c774    0000000a     libc.a : e_pow.c.obj (.text.OUTLINED_FUNCTION_1)
                  0001c77e    0000000a            : e_pow.c.obj (.text.OUTLINED_FUNCTION_6)
                  0001c788    0000000a     ST7735.o (.text.ST7735_close)
                  0001c792    0000000a     ST7735.o (.text.ST7735_unlink)
                  0001c79c    0000000a     libc.a : sprintf.c.obj (.text._outc)
                  0001c7a6    00000008            : e_pow.c.obj (.text.OUTLINED_FUNCTION_2)
                  0001c7ae    00000002     --HOLE-- [fill = 0]
                  0001c7b0    00000010     libclang_rt.builtins.a : adddf3.S.obj (.tramp.__aeabi_dsub.1)
                  0001c7c0    00000008     libc.a : aeabi_portable.c.obj (.text.__aeabi_errno_addr)
                  0001c7c8    00000008     libclang_rt.builtins.a : aeabi_memcpy.S.obj (.text.__aeabi_memcpy)
                  0001c7d0    00000008     libc.a : printf.c.obj (.text._outc)
                  0001c7d8    00000008            : printf.c.obj (.text._outs)
                  0001c7e0    00000008            : fseek.c.obj (.text.fseek)
                  0001c7e8    00000008     libsysbm.a : remove.c.obj (.text.remove)
                  0001c7f0    00000006     libc.a : e_pow.c.obj (.text.OUTLINED_FUNCTION_3)
                  0001c7f6    00000002     --HOLE-- [fill = 0]
                  0001c7f8    00000010     libclang_rt.builtins.a : adddf3.S.obj (.tramp.__aeabi_dadd.1)
                  0001c808    00000006     libc.a : e_pow.c.obj (.text.OUTLINED_FUNCTION_4)
                  0001c80e    00000006            : e_pow.c.obj (.text.OUTLINED_FUNCTION_5)
                  0001c814    00000004            : e_pow.c.obj (.text.OUTLINED_FUNCTION_10)
                  0001c818    00000004            : e_pow.c.obj (.text.OUTLINED_FUNCTION_7)
                  0001c81c    00000004            : e_pow.c.obj (.text.OUTLINED_FUNCTION_8)
                  0001c820    00000004            : e_pow.c.obj (.text.OUTLINED_FUNCTION_9)
                  0001c824    00000004     startup_mspm0g3507_ticlang.o (.text.Reset_Handler)
                  0001c828    00000004     libc.a : pre_init.c.obj (.text._system_pre_init)
                  0001c82c    00000004            : exit.c.obj (.text:abort)

.cinit     0    0001c830    000001d0     
                  0001c830    000001a9     (.cinit..data.load) [load image, compression = lzss]
                  0001c9d9    00000003     --HOLE-- [fill = 0]
                  0001c9dc    0000000c     (__TI_handler_table)
                  0001c9e8    00000008     (.cinit..bss.load) [load image, compression = zero_init]
                  0001c9f0    00000010     (__TI_cinit_table)

.rodata    0    000000c0    00015a70     
                  000000c0    00004900     Sounds.o (.rodata.reloadSound)
                  000049c0    00002ab4     Sounds.o (.rodata.pistolSound)
                  00007474    00002000     Graphics.o (.rodata.SCBarkley)
                  00009474    00002000     Graphics.o (.rodata.circuitBoardTex2)
                  0000b474    00002000     Graphics.o (.rodata.circuitBoardTex)
                  0000d474    00002000     Graphics.o (.rodata.matrix2)
                  0000f474    00001e78     Sounds.o (.rodata.shotgunSound)
                  000112ec    0000095a     Sounds.o (.rodata.weaploadSound)
                  00011c46    0000094f     Sounds.o (.rodata.outofammoSound)
                  00012595    00000001     main.o (.rodata.str1.164552152177587026401)
                  00012596    00000800     main.o (.rodata.ExplosionImage)
                  00012d96    00000800     main.o (.rodata.PistolImage)
                  00013596    00000800     main.o (.rodata.ShotgunImage)
                  00013d96    00000800     main.o (.rodata.agent)
                  00014596    000004fb     Buffer.o (.rodata.Font)
                  00014a91    000004fb     ST7735.o (.rodata.Font)
                  00014f8c    00000240     Graphics.o (.rodata.OGMap)
                  000151cc    00000200     main.o (.rodata.Ammosprite)
                  000153cc    00000200     main.o (.rodata.Medkitsprite)
                  000155cc    00000200     main.o (.rodata.Shotgunsprite)
                  000157cc    00000200     main.o (.rodata.pistolsprite)
                  000159cc    0000003b     ST7735.o (.rodata.Rcmd1)
                  00015a07    00000001     --HOLE-- [fill = 0]
                  00015a08    00000030     libc.a : e_pow.c.obj (.rodata.cst16)
                  00015a38    0000002b     ST7735.o (.rodata.Rcmd3)
                  00015a63    00000016     ST7735.o (.rodata.str1.180840905664508391481)
                  00015a79    00000014     main.o (.rodata.str1.157592557656998809351)
                  00015a8d    00000011     libc.a : _printfi.c.obj (.rodata.str1.153638888446227384661)
                  00015a9e    00000011     main.o (.rodata.str1.54842681482495761191)
                  00015aaf    00000010     main.o (.rodata.str1.182731374899196392841)
                  00015abf    0000000d     ST7735.o (.rodata.Rcmd2green)
                  00015acc    0000000d     ST7735.o (.rodata.Rcmd2red)
                  00015ad9    0000000c     main.o (.rodata.str1.30235616187663446621)
                  00015ae5    0000000c     Graphics.o (.rodata.str1.37161536259113115651)
                  00015af1    00000008     main.o (.rodata.str1.128962870563899395191)
                  00015af9    00000008     ST7735.o (.rodata.str1.42106280550816602831)
                  00015b01    00000007     ST7735.o (.rodata.str1.124659516132232304751)
                  00015b08    00000007     main.o (.rodata.str1.181369900268917052751)
                  00015b0f    00000007     main.o (.rodata.str1.58265674741439123291)
                  00015b16    00000007     ST7735.o (.rodata.str1.97082724960320730491)
                  00015b1d    00000006     Graphics.o (.rodata.str1.2002389610935928081)
                  00015b23    00000004     Graphics.o (.rodata.str1.25158831670344200691)
                  00015b27    00000002     ST7735.o (.rodata.str1.147171064836689809571)
                  00015b29    00000007     --HOLE-- [fill = 0]

.init_array 
*          0    00000000    00000000     UNINITIALIZED

.binit     0    00000000    00000000     

.bss       0    20200000    00005e7a     UNINITIALIZED
                  20200000    00005000     (.common:renderBuffer)
                  20205000    00000500     (.common:ZBuffer)
                  20205500    00000480     (.common:miniMap)
                  20205980    00000240     (.common:worldMap)
                  20205bc0    00000120     libsysbm.a : trgmsg.c.obj (.bss:_CIOBUF_)
                  20205ce0    000000a0     libc.a : defs.c.obj (.bss.__TI_tmpnams)
                  20205d80    00000080     (.common:floorGradient)
                  20205e00    00000040     (.common:RxFifo)
                  20205e40    00000008     libsysbm.a : hostopen.c.obj (.bss.parmbuf)
                  20205e48    00000004     libc.a : memory.c.obj (.bss.sys_free)
                  20205e4c    00000004     (.common:Joy_x)
                  20205e50    00000004     (.common:Joy_y)
                  20205e54    00000004     (.common:Length)
                  20205e58    00000004     (.common:LostData)
                  20205e5c    00000004     (.common:RxGetI)
                  20205e60    00000004     (.common:RxPutI)
                  20205e64    00000004     (.common:SoundPt)
                  20205e68    00000004     (.common:flag_done)
                  20205e6c    00000004     (.common:ms_done)
                  20205e70    00000004     (.common:ms_passed)
                  20205e74    00000001     ST7735.o (.bss.ColStart)
                  20205e75    00000001     ST7735.o (.bss.Rotation)
                  20205e76    00000001     ST7735.o (.bss.RowStart)
                  20205e77    00000001     ST7735.o (.bss.TabColor)
                  20205e78    00000001     (.common:isShooting)
                  20205e79    00000001     (.common:reloaded)

.data      0    20205e80    000005c5     UNINITIALIZED
                  20205e80    00000168     main.o (.data.Sprites)
                  20205fe8    000000f0     libc.a : defs.c.obj (.data._ftable)
                  202060d8    00000078     libsysbm.a : host_device.c.obj (.data._device)
                  20206150    00000068     main.o (.data.ammo_small)
                  202061b8    00000068     main.o (.data.medkit)
                  20206220    00000068     main.o (.data.pistol)
                  20206288    00000068     main.o (.data.shotgun)
                  202062f0    00000050     libsysbm.a : host_device.c.obj (.data._stream)
                  20206340    00000028     Sounds.o (.data.SoundEffects)
                  20206368    00000028     main.o (.data.gunFlash)
                  20206390    00000014     main.o (.data.inventory)
                  202063a4    00000010     main.o (.data.items)
                  202063b4    00000010     Graphics.o (.data.textures)
                  202063c4    00000008     libc.a : exit.c.obj (.data..L_MergedGlobals)
                  202063cc    00000004     Clock.o (.data.BusFreq)
                  202063d0    00000008     main.o (.data.dirX)
                  202063d8    00000008     main.o (.data.dirY)
                  202063e0    00000008     main.o (.data.planeX)
                  202063e8    00000008     main.o (.data.planeY)
                  202063f0    00000008     main.o (.data.posX)
                  202063f8    00000008     main.o (.data.posY)
                  20206400    00000004     Graphics.o (.data.RenderScene.side)
                  20206404    00000004     ST7735.o (.data.StX)
                  20206408    00000004     ST7735.o (.data.StY)
                  2020640c    00000004     libc.a : defs.c.obj (.data.__TI_ft_end)
                  20206410    00000004            : aeabi_portable.c.obj (.data.__aeabi_errno)
                  20206414    00000004            : _lock.c.obj (.data._lock)
                  20206418    00000004            : _lock.c.obj (.data._unlock)
                  2020641c    00000004            : rand.c.obj (.data.next)
                  20206420    00000004     main.o (.data.numsprites)
                  20206424    00000004     main.o (.data.otherHealth)
                  20206428    00000004     Sync.o (.data.otherPlayer)
                  2020642c    00000004     main.o (.data.playerHealth)
                  20206430    00000002     ST7735.o (.data.StTextColor)
                  20206432    00000002     ST7735.o (.data._height)
                  20206434    00000002     ST7735.o (.data._width)
                  20206436    00000001     sprites.o (.data.RenderForegroundSprites.sidesDrawn)
                  20206437    00000001     Sync.o (.data.TIMG7_IRQHandler.packetIndex)
                  20206438    00000001     Sync.o (.data.TIMG8_IRQHandler.packetIndex)
                  20206439    00000001     main.o (.data.healthCode)
                  2020643a    00000001     main.o (.data.isOnTarget)
                  2020643b    00000001     Sync.o (.data.itemsStatus)
                  2020643c    00000001     libsysbm.a : add_device.c.obj (.data.add_device.device_init)
                  2020643d    00000001     Input.o (.data.lastInput)
                  2020643e    00000002     --HOLE--
                  20206440    00000001     libc.a : memory.c.obj (.data.memory_is_initialized)
                  20206441    00000003     --HOLE--
                  20206444    00000001     libsysbm.a : open.c.obj (.data.open.stream_init)

.sysmem    0    20206448    00000200     UNINITIALIZED
                  20206448    00000010     libc.a : memory.c.obj (.sysmem)
                  20206458    000001f0     --HOLE--

.stack     0    20207e00    00000200     UNINITIALIZED
                  20207e00    00000004     libc.a : boot_cortex_m.c.obj (.stack)
                  20207e04    000001fc     --HOLE--

__llvm_prf_cnts 
*          0    20200000    00000000     UNINITIALIZED

__llvm_prf_bits 
*          0    20200000    00000000     UNINITIALIZED

MODULE SUMMARY

       Module                         code    ro data   rw data
       ------                         ----    -------   -------
    .\
       Sounds.o                       196     42197     48     
       Graphics.o                     3228    33366     3036   
       Buffer.o                       1552    1275      20608  
       main.o                         240     10328     914    
       ST7735.o                       2738    1449      18     
       sprites.o                      2314    0         1      
       Input.o                        2084    0         3      
       Sync.o                         812     0         7      
       Timer.o                        648     0         0      
       Clock.o                        516     0         4      
       Inventory.o                    504     0         0      
       SPI.o                          440     0         0      
       ADC.o                          392     0         0      
       UART2.o                        358     0         4      
       FIFO.o                         196     0         72     
       LaunchPad.o                    196     0         0      
       DAC.o                          188     0         0      
       UART1.o                        148     0         0      
       Async_Delay.o                  128     0         12     
       Joy.o                          80      0         0      
    +--+------------------------------+-------+---------+---------+
       Total:                         16958   88615     24727  
                                                               
    .\ticlang\
       startup_mspm0g3507_ticlang.o   60      192       0      
    +--+------------------------------+-------+---------+---------+
       Total:                         60      192       0      
                                                               
    C:\ti\ccs2000\ccs\tools\compiler\ti-cgt-armllvm_4.0.1.LTS\lib\armv6m-ti-none-eabi/c/libc.a
       e_pow.c.obj                    2704    48        0      
       memory.c.obj                   702     0         5      
       _printfi.c.obj                 658     17        0      
       fopen.c.obj                    556     0         0      
       defs.c.obj                     0       0         404    
       e_sqrt.c.obj                   368     0         0      
       s_floor.c.obj                  324     0         0      
       qsort.c.obj                    308     0         0      
       fputs.c.obj                    248     0         0      
       setvbuf.c.obj                  224     0         0      
       s_scalbn.c.obj                 216     0         0      
       getdevice.c.obj                160     0         0      
       fputc.c.obj                    156     0         0      
       strcmp-armv6m.S.obj            136     0         0      
       copy_decompress_lzss.c.obj     124     0         0      
       fclose.c.obj                   124     0         0      
       fseek.c.obj                    116     0         0      
       printf.c.obj                   108     0         0      
       _io_perm.c.obj                 100     0         0      
       sprintf.c.obj                  90      0         0      
       fflush.c.obj                   82      0         0      
       exit.c.obj                     56      0         8      
       autoinit.c.obj                 60      0         0      
       rand.c.obj                     56      0         4      
       boot_cortex_m.c.obj            40      0         0      
       memccpy.c.obj                  34      0         0      
       copy_decompress_none.c.obj     18      0         0      
       memcpy16.S.obj                 18      0         0      
       copy_zero_init.c.obj           16      0         0      
       memset16.S.obj                 14      0         0      
       aeabi_portable.c.obj           8       0         4      
       _lock.c.obj                    2       0         8      
       pre_init.c.obj                 4       0         0      
    +--+------------------------------+-------+---------+---------+
       Total:                         7830    65        433    
                                                               
    C:\ti\ccs2000\ccs\tools\compiler\ti-cgt-armllvm_4.0.1.LTS\lib\armv6m-ti-none-eabi/c/libsysbm.a
       trgmsg.c.obj                   104     0         288    
       add_device.c.obj               236     0         1      
       host_device.c.obj              0       0         200    
       open.c.obj                     160     0         1      
       hostrename.c.obj               136     0         0      
       hostlseek.c.obj                108     0         0      
       hostopen.c.obj                 96      0         8      
       hostread.c.obj                 88      0         0      
       hostwrite.c.obj                88      0         0      
       close.c.obj                    80      0         0      
       hostclose.c.obj                72      0         0      
       hostunlink.c.obj               72      0         0      
       unlink.c.obj                   44      0         0      
       lseek.c.obj                    40      0         0      
       write.c.obj                    40      0         0      
       remove.c.obj                   8       0         0      
    +--+------------------------------+-------+---------+---------+
       Total:                         1372    0         498    
                                                               
    C:\ti\ccs2000\ccs\tools\compiler\ti-cgt-armllvm_4.0.1.LTS\lib\armv6m-ti-none-eabi/libclang_rt.builtins.a
       adddf3.S.obj                   434     0         0      
       divdf3.S.obj                   268     0         0      
       muldf3.S.obj                   244     0         0      
       comparedf2.c.obj               220     0         0      
       aeabi_dcmp.S.obj               98      0         0      
       aeabi_idivmod.S.obj            86      0         0      
       fixdfsi.S.obj                  74      0         0      
       aeabi_uidivmod.S.obj           64      0         0      
       muldsi3.S.obj                  58      0         0      
       floatsidf.S.obj                44      0         0      
       floatunsidf.S.obj              36      0         0      
       aeabi_memset.S.obj             26      0         0      
       aeabi_memcpy.S.obj             8       0         0      
       aeabi_div0.c.obj               2       0         0      
    +--+------------------------------+-------+---------+---------+
       Total:                         1662    0         0      
                                                               
       Heap:                          0       0         512    
       Stack:                         0       0         512    
       Linker Generated:              0       461       0      
    +--+------------------------------+-------+---------+---------+
       Grand Total:                   27882   89333     26682  


LINKER GENERATED COPY TABLES

__TI_cinit_table @ 0001c9f0 records: 2, size/record: 8, table size: 16
	.data: load addr=0001c830, load size=000001a9 bytes, run addr=20205e80, run size=000005c5 bytes, compression=lzss
	.bss: load addr=0001c9e8, load size=00000008 bytes, run addr=20200000, run size=00005e7a bytes, compression=zero_init


LINKER GENERATED HANDLER TABLE

__TI_handler_table @ 0001c9dc records: 3, size/record: 4, table size: 12
	index: 0, handler: __TI_decompress_lzss
	index: 1, handler: __TI_decompress_none
	index: 2, handler: __TI_zero_init


FAR CALL TRAMPOLINES

callee name               trampoline name
   callee addr  tramp addr   call addr  call info
--------------  -----------  ---------  ----------------
__aeabi_dmul              $Tramp$TT$L$PI$$__aeabi_dmul
   00019a4d     0001c764     0001c760   libc.a : e_pow.c.obj (.text.OUTLINED_FUNCTION_0)
                             0001c77c          : e_pow.c.obj (.text.OUTLINED_FUNCTION_1)
                             0001c786          : e_pow.c.obj (.text.OUTLINED_FUNCTION_6)
                             0001c80c          : e_pow.c.obj (.text.OUTLINED_FUNCTION_4)
                             0001c812          : e_pow.c.obj (.text.OUTLINED_FUNCTION_5)
                             0001c81e          : e_pow.c.obj (.text.OUTLINED_FUNCTION_8)
__aeabi_dsub              $Tramp$TT$L$PI$$__aeabi_dsub
   000184f5     0001c7b0     0001c7ac   libc.a : e_pow.c.obj (.text.OUTLINED_FUNCTION_2)
__aeabi_dadd              $Tramp$TT$L$PI$$__aeabi_dadd
   000184ff     0001c7f8     0001c7f4   libc.a : e_pow.c.obj (.text.OUTLINED_FUNCTION_3)
                             0001c816          : e_pow.c.obj (.text.OUTLINED_FUNCTION_10)
                             0001c81a          : e_pow.c.obj (.text.OUTLINED_FUNCTION_7)
                             0001c822          : e_pow.c.obj (.text.OUTLINED_FUNCTION_9)

[3 trampolines]
[11 trampoline calls]


GLOBAL SYMBOLS: SORTED ALPHABETICALLY BY Name 

address   name                          
-------   ----                          
0001c52d  ADC0_IRQHandler               
0001c52d  ADC1_IRQHandler               
0001b3c5  ADC_InDual                    
00018d51  ADC_InitDual                  
0001c52d  AES_IRQHandler                
0001be6d  ActivatePortA_B               
000151cc  Ammosprite                    
202063cc  BusFreq                       
0001c82c  C$$EXIT                       
0001c125  C$$IO$$                       
0001c52d  CANFD0_IRQHandler             
0001719d  CastRays                      
0001c681  Clock_Delay                   
0001bff5  Clock_Delay1ms                
0001ab65  Clock_Freq                    
00018199  Clock_Init80MHz               
0001c52d  DAC0_IRQHandler               
0001a199  DAC_Init                      
0001c611  DAC_Out                       
0001c52d  DMA_IRQHandler                
0001c52d  Default_Handler               
0001c691  Delay                         
00017945  DrawCrosshair                 
00017fa5  DrawHealthBar                 
0001af71  DrawMinimap                   
00012596  ExplosionImage                
0001a9c1  FillMap                       
0001c52d  GROUP0_IRQHandler             
0001c52d  GROUP1_IRQHandler             
0001c4cd  Graphics_Init                 
0001ba8d  HOSTclose                     
0001b141  HOSTlseek                     
0001b555  HOSTopen                      
0001b66d  HOSTread                      
0001b1ad  HOSTrename                    
0001bad5  HOSTunlink                    
0001b6c5  HOSTwrite                     
0001c549  HardFault_Handler             
0001c52d  I2C0_IRQHandler               
0001c52d  I2C1_IRQHandler               
0001bbf5  Input_Init                    
00019ce9  Inventory_add                 
0001c639  Inventory_currentItem         
0001c43d  Inventory_next                
0001afe9  Inventory_removeCurrent       
0001c64b  Item_isSpent                  
0001c4ed  Item_isWeapon                 
0001c565  Joy_In                        
0001c6a1  Joy_InButton                  
0001c461  Joy_Init                      
20205e4c  Joy_x                         
20205e50  Joy_y                         
0001ad81  LaunchPad_Init                
20205e54  Length                        
20205e58  LostData                      
000153cc  Medkitsprite                  
00016579  MovePlayer                    
0001c52d  NMI_Handler                   
00014f8c  OGMap                         
0001c52d  PendSV_Handler                
00012d96  PistolImage                   
0001abf9  PrecalculateFloorGradient     
0001c52d  RTC_IRQHandler                
0001c6b1  ReadKeys                      
0001bea5  RenderBuffer                  
0001959d  RenderForegroundSprites       
0001b0d1  RenderHUD                     
0001a241  RenderInventory               
0001bc7d  RenderScene                   
00019691  RenderSky                     
00016c11  RenderSprite                  
00018689  RenderSprites                 
0001c825  Reset_Handler                 
20205e00  RxFifo                        
0001b8c5  RxFifo_Get                    
0001c625  RxFifo_Init                   
0001b911  RxFifo_Put                    
0001c59d  RxFifo_Size                   
20205e5c  RxGetI                        
20205e60  RxPutI                        
00007474  SCBarkley                     
0001c52d  SPI0_IRQHandler               
0001c52d  SPI1_IRQHandler               
000193ad  SPI_Init                      
0001bb1d  SPI_OutCommand                
0001bedd  SPI_OutData                   
0001bcbd  SPI_Reset                     
00017d95  ST7735_DrawBitmap             
0001834d  ST7735_DrawChar               
0001ac7d  ST7735_DrawString             
00018e75  ST7735_FillRect               
0001c2ed  ST7735_FillScreen             
0001a6c1  ST7735_InitPrintf             
0001a895  ST7735_InitR                  
00019db9  ST7735_OutChar                
0001c029  ST7735_SetCursor              
00019785  ST7735_SetRotation            
0001c789  ST7735_close                  
0001c6df  ST7735_lseek                  
0001c5e5  ST7735_open                   
0001c5fb  ST7735_read                   
0001c733  ST7735_rename                 
0001c793  ST7735_unlink                 
0001c05d  ST7735_write                  
0001c52d  SVC_Handler                   
00013596  ShotgunImage                  
000155cc  Shotgunsprite                 
20206340  SoundEffects                  
20205e64  SoundPt                       
0001bb65  Sound_Init                    
0001bf15  Sound_Start                   
20205e80  Sprites                       
20206430  StTextColor                   
20206404  StX                           
20206408  StY                           
0001c1fd  Sync_Init                     
0001bc39  SysTick_Handler               
0001c22d  SystemInit                    
0001c52d  TIMA0_IRQHandler              
0001c52d  TIMA1_IRQHandler              
0001bbad  TIMG0_IRQHandler              
00019f59  TIMG12_IRQHandler             
0001c52d  TIMG6_IRQHandler              
0001b71d  TIMG7_IRQHandler              
0001b95d  TIMG8_IRQHandler              
0001c65d  TI_memcpy_small               
0001c725  TI_memset_small               
0001a439  TimerG0_IntArm                
0001a92d  TimerG12_IntArm               
0001a2e9  TimerG7_IntArm                
0001a391  TimerG8_IntArm                
0001c52d  UART0_IRQHandler              
0001c52d  UART1_IRQHandler              
0001adfd  UART1_Init                    
0001c5b5  UART1_OutChar                 
0001b219  UART2_IRQHandler              
0001c371  UART2_InChar                  
00019e89  UART2_Init                    
0001c52d  UART3_IRQHandler              
20205000  ZBuffer                       
20205bc0  _CIOBUF_                      
20205bc0  __CIOBUF_                     
20208000  __STACK_END                   
00000200  __STACK_SIZE                  
00000200  __SYSMEM_SIZE                 
00000000  __TI_ATRegion0_region_sz      
00000000  __TI_ATRegion0_src_addr       
00000000  __TI_ATRegion0_trg_addr       
00000000  __TI_ATRegion1_region_sz      
00000000  __TI_ATRegion1_src_addr       
00000000  __TI_ATRegion1_trg_addr       
00000000  __TI_ATRegion2_region_sz      
00000000  __TI_ATRegion2_src_addr       
00000000  __TI_ATRegion2_trg_addr       
0001c9f0  __TI_CINIT_Base               
0001ca00  __TI_CINIT_Limit              
0001ca00  __TI_CINIT_Warm               
0001c9dc  __TI_Handler_Table_Base       
0001c9e8  __TI_Handler_Table_Limit      
0001bdf5  __TI_auto_init_nobinit_nopinit
0001c091  __TI_cleanup                  
202063c4  __TI_cleanup_ptr              
0001ae79  __TI_closefile                
0001aef5  __TI_decompress_lzss          
0001c66f  __TI_decompress_none          
0001b821  __TI_doflush                  
202063c8  __TI_dtors_ptr                
2020640c  __TI_ft_end                   
ffffffff  __TI_pprof_out_hndl           
000176c1  __TI_printfi_minimal          
ffffffff  __TI_prof_data_size           
ffffffff  __TI_prof_data_start          
0001c0c5  __TI_readmsg                  
00000000  __TI_static_base__            
20205ce0  __TI_tmpnams                  
0001c0f9  __TI_writemsg                 
0001b429  __TI_wrt_ok                   
0001c6c1  __TI_zero_init                
000184ff  __adddf3                      
0001ba41  __aeabi_d2iz                  
000184ff  __aeabi_dadd                  
0001b4f1  __aeabi_dcmpeq                
0001b52d  __aeabi_dcmpge                
0001b541  __aeabi_dcmpgt                
0001b519  __aeabi_dcmple                
0001b505  __aeabi_dcmplt                
000190a1  __aeabi_ddiv                  
00019a4d  __aeabi_dmul                  
000184f5  __aeabi_dsub                  
20206410  __aeabi_errno                 
0001c7c1  __aeabi_errno_addr            
0001c319  __aeabi_i2d                   
0001b775  __aeabi_idiv                  
00018687  __aeabi_idiv0                 
0001b775  __aeabi_idivmod               
0001c741  __aeabi_memclr                
0001c741  __aeabi_memclr4               
0001c741  __aeabi_memclr8               
0001c7c9  __aeabi_memcpy                
0001c7c9  __aeabi_memcpy4               
0001c7c9  __aeabi_memcpy8               
0001c6ed  __aeabi_memset                
0001c6ed  __aeabi_memset4               
0001c6ed  __aeabi_memset8               
0001c485  __aeabi_ui2d                  
0001bcfd  __aeabi_uidiv                 
0001bcfd  __aeabi_uidivmod              
ffffffff  __binit__                     
0001b35d  __cmpdf2                      
000190a1  __divdf3                      
0001b35d  __eqdf2                       
0001ba41  __fixdfsi                     
0001c319  __floatsidf                   
0001c485  __floatunsidf                 
0001b05d  __gedf2                       
0001b05d  __gtdf2                       
0001b35d  __ledf2                       
0001b35d  __ltdf2                       
UNDEFED   __mpu_init                    
00019a4d  __muldf3                      
0001be31  __muldsi3                     
0001b35d  __nedf2                       
20207e00  __stack                       
20200000  __start___llvm_prf_bits       
20200000  __start___llvm_prf_cnts       
20200000  __stop___llvm_prf_bits        
20200000  __stop___llvm_prf_cnts        
000184f5  __subdf3                      
0001c415  _c_int00_noargs               
202060d8  _device                       
20205fe8  _ftable                       
20206414  _lock                         
0001a57f  _nop                          
202062f0  _stream                       
20206448  _sys_memory                   
UNDEFED   _system_post_cinit            
0001c829  _system_pre_init              
20206418  _unlock                       
0001c82d  abort                         
00019879  add_device                    
00013d96  agent                         
00018f8d  aligned_alloc                 
20206150  ammo_small                    
ffffffff  binit                         
0001a581  blitBufferToRenderBuffer      
0000b474  circuitBoardTex               
00009474  circuitBoardTex2              
0001aa51  clearRenderBuffer             
0001b875  close                         
0001b7cb  compareSprites                
202063d0  dirX                          
202063d8  dirY                          
000191ad  drawCharToBuffer              
00017b7d  drawForegroundSpriteToBuffer  
0001c12d  exit                          
0001c28d  fastCos                       
0001bd7d  fastSin                       
0001c161  finddevice                    
20205e68  flag_done                     
00018ad9  floor                         
20205d80  floorGradient                 
00018ad9  floorl                        
0001c2bd  fopen                         
0001a75d  fputc                         
000194a5  fputs                         
00019965  free                          
0001c195  freopen                       
0001c7e1  fseek                         
0001b285  fseeko                        
000192ad  getInfoPacket                 
0001a7f9  getPositionPacket             
0001b2f1  getdevice                     
20206368  gunFlash                      
20206439  healthCode                    
0001b9a9  inInventory                   
00000000  interruptVectors              
20206390  inventory                     
2020643a  isOnTarget                    
20205e78  isShooting                    
202063a4  items                         
2020643b  itemsStatus                   
2020643d  lastInput                     
00019c11  ldexp                         
00019c11  ldexpl                        
0001c3c5  lseek                         
0001a025  main                          
0001c74d  malloc                        
0000d474  matrix2                       
202061b8  medkit                        
00018f8d  memalign                      
0001c4a9  memccpy                       
20205500  miniMap                       
20205e6c  ms_done                       
20205e70  ms_passed                     
20206420  numsprites                    
0001a621  open                          
20206424  otherHealth                   
20206428  otherPlayer                   
00011c46  outofammoSound                
20205e40  parmbuf                       
20206220  pistol                        
000049c0  pistolSound                   
000157cc  pistolsprite                  
202063e0  planeX                        
202063e8  planeY                        
2020642c  playerHealth                  
202063f0  posX                          
202063f8  posY                          
00015b31  pow                           
00015b31  powl                          
0001b9f5  printAmmo                     
0001c1c9  printItem                     
0001a0e5  printToBuffer                 
0001b5b5  printf                        
00018c1d  qsort                         
0001bf4d  rand                          
000000c0  reloadSound                   
20205e79  reloaded                      
0001c7e9  remove                        
20200000  renderBuffer                  
00019c11  scalbn                        
00019c11  scalbnl                       
0001bdb9  sendInfoPacket                
0001ad01  sendPositionPacket            
0001b611  setPixelBuffer                
00019b31  setvbuf                       
20206288  shotgun                       
0000f474  shotgunSound                  
0001bf85  sprintf                       
00018815  sqrt                          
00018815  sqrtl                         
0001bfbd  start_delay                   
0001ab71  strcmp                        
202063b4  textures                      
0001c345  unlink                        
000112ec  weaploadSound                 
20205980  worldMap                      
0001c3ed  write                         


GLOBAL SYMBOLS: SORTED BY Symbol Address 

address   name                          
-------   ----                          
00000000  __TI_ATRegion0_region_sz      
00000000  __TI_ATRegion0_src_addr       
00000000  __TI_ATRegion0_trg_addr       
00000000  __TI_ATRegion1_region_sz      
00000000  __TI_ATRegion1_src_addr       
00000000  __TI_ATRegion1_trg_addr       
00000000  __TI_ATRegion2_region_sz      
00000000  __TI_ATRegion2_src_addr       
00000000  __TI_ATRegion2_trg_addr       
00000000  __TI_static_base__            
00000000  interruptVectors              
000000c0  reloadSound                   
00000200  __STACK_SIZE                  
00000200  __SYSMEM_SIZE                 
000049c0  pistolSound                   
00007474  SCBarkley                     
00009474  circuitBoardTex2              
0000b474  circuitBoardTex               
0000d474  matrix2                       
0000f474  shotgunSound                  
000112ec  weaploadSound                 
00011c46  outofammoSound                
00012596  ExplosionImage                
00012d96  PistolImage                   
00013596  ShotgunImage                  
00013d96  agent                         
00014f8c  OGMap                         
000151cc  Ammosprite                    
000153cc  Medkitsprite                  
000155cc  Shotgunsprite                 
000157cc  pistolsprite                  
00015b31  pow                           
00015b31  powl                          
00016579  MovePlayer                    
00016c11  RenderSprite                  
0001719d  CastRays                      
000176c1  __TI_printfi_minimal          
00017945  DrawCrosshair                 
00017b7d  drawForegroundSpriteToBuffer  
00017d95  ST7735_DrawBitmap             
00017fa5  DrawHealthBar                 
00018199  Clock_Init80MHz               
0001834d  ST7735_DrawChar               
000184f5  __aeabi_dsub                  
000184f5  __subdf3                      
000184ff  __adddf3                      
000184ff  __aeabi_dadd                  
00018687  __aeabi_idiv0                 
00018689  RenderSprites                 
00018815  sqrt                          
00018815  sqrtl                         
00018ad9  floor                         
00018ad9  floorl                        
00018c1d  qsort                         
00018d51  ADC_InitDual                  
00018e75  ST7735_FillRect               
00018f8d  aligned_alloc                 
00018f8d  memalign                      
000190a1  __aeabi_ddiv                  
000190a1  __divdf3                      
000191ad  drawCharToBuffer              
000192ad  getInfoPacket                 
000193ad  SPI_Init                      
000194a5  fputs                         
0001959d  RenderForegroundSprites       
00019691  RenderSky                     
00019785  ST7735_SetRotation            
00019879  add_device                    
00019965  free                          
00019a4d  __aeabi_dmul                  
00019a4d  __muldf3                      
00019b31  setvbuf                       
00019c11  ldexp                         
00019c11  ldexpl                        
00019c11  scalbn                        
00019c11  scalbnl                       
00019ce9  Inventory_add                 
00019db9  ST7735_OutChar                
00019e89  UART2_Init                    
00019f59  TIMG12_IRQHandler             
0001a025  main                          
0001a0e5  printToBuffer                 
0001a199  DAC_Init                      
0001a241  RenderInventory               
0001a2e9  TimerG7_IntArm                
0001a391  TimerG8_IntArm                
0001a439  TimerG0_IntArm                
0001a57f  _nop                          
0001a581  blitBufferToRenderBuffer      
0001a621  open                          
0001a6c1  ST7735_InitPrintf             
0001a75d  fputc                         
0001a7f9  getPositionPacket             
0001a895  ST7735_InitR                  
0001a92d  TimerG12_IntArm               
0001a9c1  FillMap                       
0001aa51  clearRenderBuffer             
0001ab65  Clock_Freq                    
0001ab71  strcmp                        
0001abf9  PrecalculateFloorGradient     
0001ac7d  ST7735_DrawString             
0001ad01  sendPositionPacket            
0001ad81  LaunchPad_Init                
0001adfd  UART1_Init                    
0001ae79  __TI_closefile                
0001aef5  __TI_decompress_lzss          
0001af71  DrawMinimap                   
0001afe9  Inventory_removeCurrent       
0001b05d  __gedf2                       
0001b05d  __gtdf2                       
0001b0d1  RenderHUD                     
0001b141  HOSTlseek                     
0001b1ad  HOSTrename                    
0001b219  UART2_IRQHandler              
0001b285  fseeko                        
0001b2f1  getdevice                     
0001b35d  __cmpdf2                      
0001b35d  __eqdf2                       
0001b35d  __ledf2                       
0001b35d  __ltdf2                       
0001b35d  __nedf2                       
0001b3c5  ADC_InDual                    
0001b429  __TI_wrt_ok                   
0001b4f1  __aeabi_dcmpeq                
0001b505  __aeabi_dcmplt                
0001b519  __aeabi_dcmple                
0001b52d  __aeabi_dcmpge                
0001b541  __aeabi_dcmpgt                
0001b555  HOSTopen                      
0001b5b5  printf                        
0001b611  setPixelBuffer                
0001b66d  HOSTread                      
0001b6c5  HOSTwrite                     
0001b71d  TIMG7_IRQHandler              
0001b775  __aeabi_idiv                  
0001b775  __aeabi_idivmod               
0001b7cb  compareSprites                
0001b821  __TI_doflush                  
0001b875  close                         
0001b8c5  RxFifo_Get                    
0001b911  RxFifo_Put                    
0001b95d  TIMG8_IRQHandler              
0001b9a9  inInventory                   
0001b9f5  printAmmo                     
0001ba41  __aeabi_d2iz                  
0001ba41  __fixdfsi                     
0001ba8d  HOSTclose                     
0001bad5  HOSTunlink                    
0001bb1d  SPI_OutCommand                
0001bb65  Sound_Init                    
0001bbad  TIMG0_IRQHandler              
0001bbf5  Input_Init                    
0001bc39  SysTick_Handler               
0001bc7d  RenderScene                   
0001bcbd  SPI_Reset                     
0001bcfd  __aeabi_uidiv                 
0001bcfd  __aeabi_uidivmod              
0001bd7d  fastSin                       
0001bdb9  sendInfoPacket                
0001bdf5  __TI_auto_init_nobinit_nopinit
0001be31  __muldsi3                     
0001be6d  ActivatePortA_B               
0001bea5  RenderBuffer                  
0001bedd  SPI_OutData                   
0001bf15  Sound_Start                   
0001bf4d  rand                          
0001bf85  sprintf                       
0001bfbd  start_delay                   
0001bff5  Clock_Delay1ms                
0001c029  ST7735_SetCursor              
0001c05d  ST7735_write                  
0001c091  __TI_cleanup                  
0001c0c5  __TI_readmsg                  
0001c0f9  __TI_writemsg                 
0001c125  C$$IO$$                       
0001c12d  exit                          
0001c161  finddevice                    
0001c195  freopen                       
0001c1c9  printItem                     
0001c1fd  Sync_Init                     
0001c22d  SystemInit                    
0001c28d  fastCos                       
0001c2bd  fopen                         
0001c2ed  ST7735_FillScreen             
0001c319  __aeabi_i2d                   
0001c319  __floatsidf                   
0001c345  unlink                        
0001c371  UART2_InChar                  
0001c3c5  lseek                         
0001c3ed  write                         
0001c415  _c_int00_noargs               
0001c43d  Inventory_next                
0001c461  Joy_Init                      
0001c485  __aeabi_ui2d                  
0001c485  __floatunsidf                 
0001c4a9  memccpy                       
0001c4cd  Graphics_Init                 
0001c4ed  Item_isWeapon                 
0001c52d  ADC0_IRQHandler               
0001c52d  ADC1_IRQHandler               
0001c52d  AES_IRQHandler                
0001c52d  CANFD0_IRQHandler             
0001c52d  DAC0_IRQHandler               
0001c52d  DMA_IRQHandler                
0001c52d  Default_Handler               
0001c52d  GROUP0_IRQHandler             
0001c52d  GROUP1_IRQHandler             
0001c52d  I2C0_IRQHandler               
0001c52d  I2C1_IRQHandler               
0001c52d  NMI_Handler                   
0001c52d  PendSV_Handler                
0001c52d  RTC_IRQHandler                
0001c52d  SPI0_IRQHandler               
0001c52d  SPI1_IRQHandler               
0001c52d  SVC_Handler                   
0001c52d  TIMA0_IRQHandler              
0001c52d  TIMA1_IRQHandler              
0001c52d  TIMG6_IRQHandler              
0001c52d  UART0_IRQHandler              
0001c52d  UART1_IRQHandler              
0001c52d  UART3_IRQHandler              
0001c549  HardFault_Handler             
0001c565  Joy_In                        
0001c59d  RxFifo_Size                   
0001c5b5  UART1_OutChar                 
0001c5e5  ST7735_open                   
0001c5fb  ST7735_read                   
0001c611  DAC_Out                       
0001c625  RxFifo_Init                   
0001c639  Inventory_currentItem         
0001c64b  Item_isSpent                  
0001c65d  TI_memcpy_small               
0001c66f  __TI_decompress_none          
0001c681  Clock_Delay                   
0001c691  Delay                         
0001c6a1  Joy_InButton                  
0001c6b1  ReadKeys                      
0001c6c1  __TI_zero_init                
0001c6df  ST7735_lseek                  
0001c6ed  __aeabi_memset                
0001c6ed  __aeabi_memset4               
0001c6ed  __aeabi_memset8               
0001c725  TI_memset_small               
0001c733  ST7735_rename                 
0001c741  __aeabi_memclr                
0001c741  __aeabi_memclr4               
0001c741  __aeabi_memclr8               
0001c74d  malloc                        
0001c789  ST7735_close                  
0001c793  ST7735_unlink                 
0001c7c1  __aeabi_errno_addr            
0001c7c9  __aeabi_memcpy                
0001c7c9  __aeabi_memcpy4               
0001c7c9  __aeabi_memcpy8               
0001c7e1  fseek                         
0001c7e9  remove                        
0001c825  Reset_Handler                 
0001c829  _system_pre_init              
0001c82c  C$$EXIT                       
0001c82d  abort                         
0001c9dc  __TI_Handler_Table_Base       
0001c9e8  __TI_Handler_Table_Limit      
0001c9f0  __TI_CINIT_Base               
0001ca00  __TI_CINIT_Limit              
0001ca00  __TI_CINIT_Warm               
20200000  __start___llvm_prf_bits       
20200000  __start___llvm_prf_cnts       
20200000  __stop___llvm_prf_bits        
20200000  __stop___llvm_prf_cnts        
20200000  renderBuffer                  
20205000  ZBuffer                       
20205500  miniMap                       
20205980  worldMap                      
20205bc0  _CIOBUF_                      
20205bc0  __CIOBUF_                     
20205ce0  __TI_tmpnams                  
20205d80  floorGradient                 
20205e00  RxFifo                        
20205e40  parmbuf                       
20205e4c  Joy_x                         
20205e50  Joy_y                         
20205e54  Length                        
20205e58  LostData                      
20205e5c  RxGetI                        
20205e60  RxPutI                        
20205e64  SoundPt                       
20205e68  flag_done                     
20205e6c  ms_done                       
20205e70  ms_passed                     
20205e78  isShooting                    
20205e79  reloaded                      
20205e80  Sprites                       
20205fe8  _ftable                       
202060d8  _device                       
20206150  ammo_small                    
202061b8  medkit                        
20206220  pistol                        
20206288  shotgun                       
202062f0  _stream                       
20206340  SoundEffects                  
20206368  gunFlash                      
20206390  inventory                     
202063a4  items                         
202063b4  textures                      
202063c4  __TI_cleanup_ptr              
202063c8  __TI_dtors_ptr                
202063cc  BusFreq                       
202063d0  dirX                          
202063d8  dirY                          
202063e0  planeX                        
202063e8  planeY                        
202063f0  posX                          
202063f8  posY                          
20206404  StX                           
20206408  StY                           
2020640c  __TI_ft_end                   
20206410  __aeabi_errno                 
20206414  _lock                         
20206418  _unlock                       
20206420  numsprites                    
20206424  otherHealth                   
20206428  otherPlayer                   
2020642c  playerHealth                  
20206430  StTextColor                   
20206439  healthCode                    
2020643a  isOnTarget                    
2020643b  itemsStatus                   
2020643d  lastInput                     
20206448  _sys_memory                   
20207e00  __stack                       
20208000  __STACK_END                   
ffffffff  __TI_pprof_out_hndl           
ffffffff  __TI_prof_data_size           
ffffffff  __TI_prof_data_start          
ffffffff  __binit__                     
ffffffff  binit                         
UNDEFED   __mpu_init                    
UNDEFED   _system_post_cinit            

[338 symbols]
